; ModuleID = '32/2506.c'
source_filename = "32/2506.c"
target datalayout = "e-m:e-p270:32:32-p271:32:32-p272:64:64-i64:64-f80:128-n8:16:32:64-S128"
target triple = "x86_64-pc-linux-gnu"

@.str = private unnamed_addr constant [3 x i8] c"%d\00", align 1
@.str.1 = private unnamed_addr constant [3 x i8] c"%c\00", align 1
@.str.2 = private unnamed_addr constant [4 x i8] c"%c\0A\00", align 1

; Function Attrs: noinline nounwind uwtable
define dso_local void @main() #0 {
  %1 = alloca i32, align 4
  %2 = alloca i32, align 4
  %3 = alloca i32, align 4
  %4 = alloca i32, align 4
  %5 = alloca i32, align 4
  %6 = alloca i32, align 4
  %7 = alloca [100 x i8], align 16
  %8 = alloca [100 x i8], align 16
  %9 = alloca i8*, align 8
  %10 = alloca i8*, align 8
  %11 = alloca [20 x i8], align 16
  %12 = alloca i8*, align 8
  %13 = call i32 (i8*, ...) @__isoc99_scanf(i8* getelementptr inbounds ([3 x i8], [3 x i8]* @.str, i64 0, i64 0), i32* %1)
  %14 = getelementptr inbounds [20 x i8], [20 x i8]* %11, i64 0, i64 0
  %15 = call i32 (i8*, ...) bitcast (i32 (...)* @gets to i32 (i8*, ...)*)(i8* %14)
  store i32 1, i32* %4, align 4
  br label %16

16:                                               ; preds = %144, %0
  %17 = load i32, i32* %4, align 4
  %18 = load i32, i32* %1, align 4
  %19 = icmp sle i32 %17, %18
  br i1 %19, label %20, label %147

20:                                               ; preds = %16
  %21 = getelementptr inbounds [100 x i8], [100 x i8]* %7, i64 0, i64 0
  %22 = call i32 (i8*, ...) bitcast (i32 (...)* @gets to i32 (i8*, ...)*)(i8* %21)
  %23 = getelementptr inbounds [100 x i8], [100 x i8]* %8, i64 0, i64 0
  %24 = call i32 (i8*, ...) bitcast (i32 (...)* @gets to i32 (i8*, ...)*)(i8* %23)
  %25 = getelementptr inbounds [20 x i8], [20 x i8]* %11, i64 0, i64 0
  %26 = call i32 (i8*, ...) bitcast (i32 (...)* @gets to i32 (i8*, ...)*)(i8* %25)
  %27 = getelementptr inbounds [100 x i8], [100 x i8]* %7, i64 0, i64 0
  %28 = call i64 @strlen(i8* %27) #3
  %29 = trunc i64 %28 to i32
  store i32 %29, i32* %3, align 4
  %30 = getelementptr inbounds [100 x i8], [100 x i8]* %8, i64 0, i64 0
  %31 = call i64 @strlen(i8* %30) #3
  %32 = trunc i64 %31 to i32
  store i32 %32, i32* %2, align 4
  %33 = getelementptr inbounds [100 x i8], [100 x i8]* %8, i64 0, i64 0
  %34 = load i32, i32* %2, align 4
  %35 = sext i32 %34 to i64
  %36 = getelementptr inbounds i8, i8* %33, i64 %35
  %37 = getelementptr inbounds i8, i8* %36, i64 -1
  store i8* %37, i8** %9, align 8
  %38 = getelementptr inbounds [100 x i8], [100 x i8]* %7, i64 0, i64 0
  %39 = load i32, i32* %3, align 4
  %40 = sext i32 %39 to i64
  %41 = getelementptr inbounds i8, i8* %38, i64 %40
  %42 = getelementptr inbounds i8, i8* %41, i64 -1
  store i8* %42, i8** %10, align 8
  br label %43

43:                                               ; preds = %96, %20
  %44 = load i8*, i8** %9, align 8
  %45 = getelementptr inbounds [100 x i8], [100 x i8]* %8, i64 0, i64 0
  %46 = icmp uge i8* %44, %45
  br i1 %46, label %47, label %101

47:                                               ; preds = %43
  %48 = load i8*, i8** %10, align 8
  %49 = load i8, i8* %48, align 1
  %50 = sext i8 %49 to i32
  %51 = load i8*, i8** %9, align 8
  %52 = load i8, i8* %51, align 1
  %53 = sext i8 %52 to i32
  %54 = icmp sge i32 %50, %53
  br i1 %54, label %55, label %66

55:                                               ; preds = %47
  %56 = load i8*, i8** %10, align 8
  %57 = load i8, i8* %56, align 1
  %58 = sext i8 %57 to i32
  %59 = load i8*, i8** %9, align 8
  %60 = load i8, i8* %59, align 1
  %61 = sext i8 %60 to i32
  %62 = sub nsw i32 %58, %61
  %63 = add nsw i32 %62, 48
  %64 = trunc i32 %63 to i8
  %65 = load i8*, i8** %10, align 8
  store i8 %64, i8* %65, align 1
  br label %95

66:                                               ; preds = %47
  %67 = load i8*, i8** %10, align 8
  %68 = load i8, i8* %67, align 1
  %69 = sext i8 %68 to i32
  %70 = load i8*, i8** %9, align 8
  %71 = load i8, i8* %70, align 1
  %72 = sext i8 %71 to i32
  %73 = sub nsw i32 %69, %72
  %74 = add nsw i32 %73, 58
  %75 = trunc i32 %74 to i8
  %76 = load i8*, i8** %10, align 8
  store i8 %75, i8* %76, align 1
  %77 = load i8*, i8** %10, align 8
  %78 = getelementptr inbounds i8, i8* %77, i64 -1
  store i8* %78, i8** %12, align 8
  br label %79

79:                                               ; preds = %84, %66
  %80 = load i8*, i8** %12, align 8
  %81 = load i8, i8* %80, align 1
  %82 = sext i8 %81 to i32
  %83 = icmp eq i32 %82, 0
  br i1 %83, label %84, label %88

84:                                               ; preds = %79
  %85 = load i8*, i8** %12, align 8
  store i8 57, i8* %85, align 1
  %86 = load i8*, i8** %12, align 8
  %87 = getelementptr inbounds i8, i8* %86, i32 -1
  store i8* %87, i8** %12, align 8
  br label %79

88:                                               ; preds = %79
  %89 = load i8*, i8** %12, align 8
  %90 = load i8, i8* %89, align 1
  %91 = sext i8 %90 to i32
  %92 = sub nsw i32 %91, 1
  %93 = trunc i32 %92 to i8
  %94 = load i8*, i8** %12, align 8
  store i8 %93, i8* %94, align 1
  br label %95

95:                                               ; preds = %88, %55
  br label %96

96:                                               ; preds = %95
  %97 = load i8*, i8** %9, align 8
  %98 = getelementptr inbounds i8, i8* %97, i32 -1
  store i8* %98, i8** %9, align 8
  %99 = load i8*, i8** %10, align 8
  %100 = getelementptr inbounds i8, i8* %99, i32 -1
  store i8* %100, i8** %10, align 8
  br label %43

101:                                              ; preds = %43
  store i32 0, i32* %6, align 4
  br label %102

102:                                              ; preds = %116, %101
  %103 = load i32, i32* %6, align 4
  %104 = load i32, i32* %3, align 4
  %105 = sub nsw i32 %104, 1
  %106 = icmp sle i32 %103, %105
  br i1 %106, label %107, label %119

107:                                              ; preds = %102
  %108 = load i32, i32* %4, align 4
  %109 = sext i32 %108 to i64
  %110 = getelementptr inbounds [100 x i8], [100 x i8]* %7, i64 0, i64 %109
  %111 = load i8, i8* %110, align 1
  %112 = sext i8 %111 to i32
  %113 = icmp ne i32 %112, 0
  br i1 %113, label %114, label %115

114:                                              ; preds = %107
  br label %119

115:                                              ; preds = %107
  br label %116

116:                                              ; preds = %115
  %117 = load i32, i32* %6, align 4
  %118 = add nsw i32 %117, 1
  store i32 %118, i32* %6, align 4
  br label %102

119:                                              ; preds = %114, %102
  %120 = load i32, i32* %6, align 4
  store i32 %120, i32* %5, align 4
  br label %121

121:                                              ; preds = %133, %119
  %122 = load i32, i32* %5, align 4
  %123 = load i32, i32* %3, align 4
  %124 = sub nsw i32 %123, 1
  %125 = icmp slt i32 %122, %124
  br i1 %125, label %126, label %136

126:                                              ; preds = %121
  %127 = load i32, i32* %5, align 4
  %128 = sext i32 %127 to i64
  %129 = getelementptr inbounds [100 x i8], [100 x i8]* %7, i64 0, i64 %128
  %130 = load i8, i8* %129, align 1
  %131 = sext i8 %130 to i32
  %132 = call i32 (i8*, ...) @printf(i8* getelementptr inbounds ([3 x i8], [3 x i8]* @.str.1, i64 0, i64 0), i32 %131)
  br label %133

133:                                              ; preds = %126
  %134 = load i32, i32* %5, align 4
  %135 = add nsw i32 %134, 1
  store i32 %135, i32* %5, align 4
  br label %121

136:                                              ; preds = %121
  %137 = load i32, i32* %3, align 4
  %138 = sub nsw i32 %137, 1
  %139 = sext i32 %138 to i64
  %140 = getelementptr inbounds [100 x i8], [100 x i8]* %7, i64 0, i64 %139
  %141 = load i8, i8* %140, align 1
  %142 = sext i8 %141 to i32
  %143 = call i32 (i8*, ...) @printf(i8* getelementptr inbounds ([4 x i8], [4 x i8]* @.str.2, i64 0, i64 0), i32 %142)
  br label %144

144:                                              ; preds = %136
  %145 = load i32, i32* %4, align 4
  %146 = add nsw i32 %145, 1
  store i32 %146, i32* %4, align 4
  br label %16

147:                                              ; preds = %16
  ret void
}

declare dso_local i32 @__isoc99_scanf(i8*, ...) #1

declare dso_local i32 @gets(...) #1

; Function Attrs: nounwind readonly
declare dso_local i64 @strlen(i8*) #2

declare dso_local i32 @printf(i8*, ...) #1


!llvm.module.flags = !{!0}
!llvm.ident = !{!1}

!0 = !{i32 1, !"wchar_size", i32 4}
!1 = !{!"clang version 10.0.0-4ubuntu1 "}
