; ModuleID = 'source-C-CXX/31/2506.c'
source_filename = "source-C-CXX/31/2506.c"
target datalayout = "e-m:e-p270:32:32-p271:32:32-p272:64:64-i64:64-f80:128-n8:16:32:64-S128"
target triple = "x86_64-pc-linux-gnu"

@.str = private unnamed_addr constant [3 x i8] c"%d\00", align 1
@.str.2 = private unnamed_addr constant [4 x i8] c"%c\0A\00", align 1

; Function Attrs: nounwind sspstrong uwtable
define dso_local void @main() local_unnamed_addr #0 {
  %1 = alloca i32, align 4
  %2 = alloca [100 x i8], align 16
  %3 = alloca [100 x i8], align 16
  %4 = alloca [20 x i8], align 16
  %5 = bitcast i32* %1 to i8*
  call void @llvm.lifetime.start.p0i8(i64 4, i8* nonnull %5) #6
  %6 = getelementptr inbounds [100 x i8], [100 x i8]* %2, i64 0, i64 0
  call void @llvm.lifetime.start.p0i8(i64 100, i8* nonnull %6) #6
  %7 = getelementptr inbounds [100 x i8], [100 x i8]* %3, i64 0, i64 0
  call void @llvm.lifetime.start.p0i8(i64 100, i8* nonnull %7) #6
  %8 = getelementptr inbounds [20 x i8], [20 x i8]* %4, i64 0, i64 0
  call void @llvm.lifetime.start.p0i8(i64 20, i8* nonnull %8) #6
  %9 = call i32 (i8*, ...) @__isoc99_scanf(i8* getelementptr inbounds ([3 x i8], [3 x i8]* @.str, i64 0, i64 0), i32* nonnull %1)
  %10 = call i32 (i8*, ...) bitcast (i32 (...)* @gets to i32 (i8*, ...)*)(i8* nonnull %8) #6
  %11 = load i32, i32* %1, align 4, !tbaa !5
  %12 = icmp slt i32 %11, 1
  br i1 %12, label %89, label %13

13:                                               ; preds = %0, %78
  %14 = phi i64 [ %85, %78 ], [ 1, %0 ]
  %15 = call i32 (i8*, ...) bitcast (i32 (...)* @gets to i32 (i8*, ...)*)(i8* nonnull %6) #6
  %16 = call i32 (i8*, ...) bitcast (i32 (...)* @gets to i32 (i8*, ...)*)(i8* nonnull %7) #6
  %17 = call i32 (i8*, ...) bitcast (i32 (...)* @gets to i32 (i8*, ...)*)(i8* nonnull %8) #6
  %18 = call i64 @strlen(i8* noundef nonnull %6) #7
  %19 = trunc i64 %18 to i32
  %20 = call i64 @strlen(i8* noundef nonnull %7) #7
  %21 = shl i64 %20, 32
  %22 = ashr exact i64 %21, 32
  %23 = getelementptr inbounds [100 x i8], [100 x i8]* %3, i64 0, i64 %22
  %24 = getelementptr inbounds i8, i8* %23, i64 -1
  %25 = icmp ult i8* %24, %7
  br i1 %25, label %30, label %26

26:                                               ; preds = %13
  %27 = shl i64 %18, 32
  %28 = ashr exact i64 %27, 32
  %29 = getelementptr inbounds [100 x i8], [100 x i8]* %2, i64 0, i64 %28
  br label %38

30:                                               ; preds = %63, %13
  %31 = icmp sgt i32 %19, 0
  br i1 %31, label %32, label %66

32:                                               ; preds = %30
  %33 = getelementptr inbounds [100 x i8], [100 x i8]* %2, i64 0, i64 %14
  %34 = load i8, i8* %33, align 1, !tbaa !9
  %35 = icmp eq i8 %34, 0
  br i1 %35, label %36, label %66

36:                                               ; preds = %32
  %37 = add nsw i32 %19, -1
  br label %78

38:                                               ; preds = %26, %63
  %39 = phi i8* [ %64, %63 ], [ %24, %26 ]
  %40 = phi i8* [ %41, %63 ], [ %29, %26 ]
  %41 = getelementptr inbounds i8, i8* %40, i64 -1
  %42 = load i8, i8* %41, align 1, !tbaa !9
  %43 = load i8, i8* %39, align 1, !tbaa !9
  %44 = icmp slt i8 %42, %43
  br i1 %44, label %48, label %45

45:                                               ; preds = %38
  %46 = add i8 %42, 48
  %47 = sub i8 %46, %43
  store i8 %47, i8* %41, align 1, !tbaa !9
  br label %63

48:                                               ; preds = %38
  %49 = add i8 %42, 58
  %50 = sub i8 %49, %43
  store i8 %50, i8* %41, align 1, !tbaa !9
  %51 = getelementptr inbounds i8, i8* %40, i64 -2
  %52 = load i8, i8* %51, align 1, !tbaa !9
  %53 = icmp eq i8 %52, 0
  br i1 %53, label %54, label %59

54:                                               ; preds = %48, %54
  %55 = phi i8* [ %56, %54 ], [ %51, %48 ]
  store i8 57, i8* %55, align 1, !tbaa !9
  %56 = getelementptr inbounds i8, i8* %55, i64 -1
  %57 = load i8, i8* %56, align 1, !tbaa !9
  %58 = icmp eq i8 %57, 0
  br i1 %58, label %54, label %59, !llvm.loop !10

59:                                               ; preds = %54, %48
  %60 = phi i8* [ %51, %48 ], [ %56, %54 ]
  %61 = phi i8 [ %52, %48 ], [ %57, %54 ]
  %62 = add i8 %61, -1
  store i8 %62, i8* %60, align 1, !tbaa !9
  br label %63

63:                                               ; preds = %45, %59
  %64 = getelementptr inbounds i8, i8* %39, i64 -1
  %65 = icmp ult i8* %64, %7
  br i1 %65, label %30, label %38, !llvm.loop !12

66:                                               ; preds = %32, %30
  %67 = add nsw i32 %19, -1
  %68 = icmp sgt i32 %19, 1
  br i1 %68, label %69, label %78

69:                                               ; preds = %66, %69
  %70 = phi i64 [ %75, %69 ], [ 0, %66 ]
  %71 = getelementptr inbounds [100 x i8], [100 x i8]* %2, i64 0, i64 %70
  %72 = load i8, i8* %71, align 1, !tbaa !9
  %73 = sext i8 %72 to i32
  %74 = call i32 @putchar(i32 %73)
  %75 = add nuw nsw i64 %70, 1
  %76 = trunc i64 %75 to i32
  %77 = icmp sgt i32 %67, %76
  br i1 %77, label %69, label %78, !llvm.loop !13

78:                                               ; preds = %69, %36, %66
  %79 = phi i32 [ %37, %36 ], [ %67, %66 ], [ %67, %69 ]
  %80 = sext i32 %79 to i64
  %81 = getelementptr inbounds [100 x i8], [100 x i8]* %2, i64 0, i64 %80
  %82 = load i8, i8* %81, align 1, !tbaa !9
  %83 = sext i8 %82 to i32
  %84 = call i32 (i8*, ...) @printf(i8* nonnull dereferenceable(1) getelementptr inbounds ([4 x i8], [4 x i8]* @.str.2, i64 0, i64 0), i32 %83)
  %85 = add nuw nsw i64 %14, 1
  %86 = load i32, i32* %1, align 4, !tbaa !5
  %87 = sext i32 %86 to i64
  %88 = icmp slt i64 %14, %87
  br i1 %88, label %13, label %89, !llvm.loop !14

89:                                               ; preds = %78, %0
  call void @llvm.lifetime.end.p0i8(i64 20, i8* nonnull %8) #6
  call void @llvm.lifetime.end.p0i8(i64 100, i8* nonnull %7) #6
  call void @llvm.lifetime.end.p0i8(i64 100, i8* nonnull %6) #6
  call void @llvm.lifetime.end.p0i8(i64 4, i8* nonnull %5) #6
  ret void
}

; Function Attrs: argmemonly mustprogress nofree nosync nounwind willreturn
declare void @llvm.lifetime.start.p0i8(i64 immarg, i8* nocapture) #1

; Function Attrs: nofree nounwind
declare noundef i32 @__isoc99_scanf(i8* nocapture noundef readonly, ...) local_unnamed_addr #2

declare i32 @gets(...) local_unnamed_addr #3

; Function Attrs: argmemonly mustprogress nofree nounwind readonly willreturn
declare i64 @strlen(i8* nocapture) local_unnamed_addr #4

; Function Attrs: nofree nounwind
declare noundef i32 @printf(i8* nocapture noundef readonly, ...) local_unnamed_addr #2

; Function Attrs: argmemonly mustprogress nofree nosync nounwind willreturn
declare void @llvm.lifetime.end.p0i8(i64 immarg, i8* nocapture) #1

; Function Attrs: nofree nounwind
declare noundef i32 @putchar(i32 noundef) local_unnamed_addr #5


!llvm.module.flags = !{!0, !1, !2, !3}
!llvm.ident = !{!4}

!0 = !{i32 1, !"wchar_size", i32 4}
!1 = !{i32 7, !"PIC Level", i32 2}
!2 = !{i32 7, !"PIE Level", i32 2}
!3 = !{i32 7, !"uwtable", i32 1}
!4 = !{!"clang version 13.0.0"}
!5 = !{!6, !6, i64 0}
!6 = !{!"int", !7, i64 0}
!7 = !{!"omnipotent char", !8, i64 0}
!8 = !{!"Simple C/C++ TBAA"}
!9 = !{!7, !7, i64 0}
!10 = distinct !{!10, !11}
!11 = !{!"llvm.loop.mustprogress"}
!12 = distinct !{!12, !11}
!13 = distinct !{!13, !11}
!14 = distinct !{!14, !11}
